target datalayout = "e-m:e-p270:32:32-p271:32:32-p272:64:64-i64:64-i128:128-f80:128-n8:16:32:64-S128"
target triple = "x86_64-pc-linux-gnu"

%struct.ArrayType = type { i32, i32, i32, i32 }

; Function Attrs: nounwind uwtable
define dso_local void @aclitemsort(ptr noundef %0) #0 {
  %2 = alloca ptr, align 8
  store ptr %0, ptr %2, align 8
  %3 = load ptr, ptr %2, align 8
  %4 = icmp ne ptr %3, null
  br i1 %4, label %5, label %39

5:                                                ; preds = %1
  %6 = load ptr, ptr %2, align 8
  %7 = getelementptr inbounds nuw i8, ptr %6, i64 16
  %8 = getelementptr inbounds i32, ptr %7, i64 0
  %9 = load i32, ptr %8, align 4
  %10 = icmp sgt i32 %9, 1
  br i1 %10, label %11, label %39

11:                                               ; preds = %5
  %12 = load ptr, ptr %2, align 8
  %13 = load ptr, ptr %2, align 8
  %14 = getelementptr inbounds nuw %struct.ArrayType, ptr %13, i32 0, i32 2
  %15 = load i32, ptr %14, align 4
  %16 = icmp ne i32 %15, 0
  br i1 %16, label %17, label %22

17:                                               ; preds = %11
  %18 = load ptr, ptr %2, align 8
  %19 = getelementptr inbounds nuw %struct.ArrayType, ptr %18, i32 0, i32 2
  %20 = load i32, ptr %19, align 4
  %21 = sext i32 %20 to i64
  br label %31

22:                                               ; preds = %11
  %23 = load ptr, ptr %2, align 8
  %24 = getelementptr inbounds nuw %struct.ArrayType, ptr %23, i32 0, i32 1
  %25 = load i32, ptr %24, align 4
  %26 = sext i32 %25 to i64
  %27 = mul i64 8, %26
  %28 = add i64 16, %27
  %29 = add i64 %28, 7
  %30 = and i64 %29, -8
  br label %31

31:                                               ; preds = %22, %17
  %32 = phi i64 [ %21, %17 ], [ %30, %22 ]
  %33 = getelementptr inbounds nuw i8, ptr %12, i64 %32
  %34 = load ptr, ptr %2, align 8
  %35 = getelementptr inbounds nuw i8, ptr %34, i64 16
  %36 = getelementptr inbounds i32, ptr %35, i64 0
  %37 = load i32, ptr %36, align 4
  %38 = sext i32 %37 to i64
  call void @pg_qsort(ptr noundef %33, i64 noundef %38, i64 noundef 16, ptr noundef @aclitemComparator)
  br label %39

39:                                               ; preds = %31, %5, %1
  ret void
}