; Function Attrs: nounwind uwtable
define dso_local void @aclitemsort(ptr noundef %0) local_unnamed_addr #0 {
  %.not = icmp eq ptr %0, null
  br i1 %.not, label %22, label %2

2:                                                ; preds = %1
  %3 = getelementptr inbounds nuw i8, ptr %0, i64 16
  %4 = load i32, ptr %3, align 4
  %5 = icmp sgt i32 %4, 1
  br i1 %5, label %6, label %22

6:                                                ; preds = %2
  %7 = getelementptr inbounds nuw i8, ptr %0, i64 8
  %8 = load i32, ptr %7, align 4
  %.not8 = icmp eq i32 %8, 0
  br i1 %.not8, label %11, label %9

9:                                                ; preds = %6
  %10 = sext i32 %8 to i64
  br label %18

11:                                               ; preds = %6
  %12 = getelementptr inbounds nuw i8, ptr %0, i64 4
  %13 = load i32, ptr %12, align 4
  %14 = sext i32 %13 to i64
  %15 = shl nsw i64 %14, 3
  %16 = add nsw i64 %15, 23
  %17 = and i64 %16, -8
  br label %18

18:                                               ; preds = %11, %9
  %19 = phi i64 [ %10, %9 ], [ %17, %11 ]
  %20 = getelementptr inbounds nuw i8, ptr %0, i64 %19
  %21 = zext nneg i32 %4 to i64
  tail call void @pg_qsort(ptr noundef nonnull %20, i64 noundef %21, i64 noundef 16, ptr noundef nonnull @aclitemComparator) #14
  br label %22

22:                                               ; preds = %18, %2, %1
  ret void
}